target datalayout = "e-m:e-p270:32:32-p271:32:32-p272:64:64-i64:64-i128:128-f80:128-n8:16:32:64-S128"
target triple = "x86_64-pc-linux-gnu"

%struct.anon = type { i32, i32 }

@.str.63 = private unnamed_addr constant [5 x i8] c"null\00", align 1
@.str.64 = private unnamed_addr constant [5 x i8] c"list\00", align 1
@.str.65 = private unnamed_addr constant [11 x i8] c"dictionary\00", align 1
@.str.66 = private unnamed_addr constant [15 x i8] c"64 bit integer\00", align 1
@.str.67 = private unnamed_addr constant [7 x i8] c"string\00", align 1
@.str.68 = private unnamed_addr constant [22 x i8] c"floating point number\00", align 1
@.str.69 = private unnamed_addr constant [8 x i8] c"boolean\00", align 1
@.str.70 = private unnamed_addr constant [8 x i8] c"INVALID\00", align 1

; Function Attrs: nounwind uwtable
define dso_local ptr @data_type_to_string(i32 noundef %0) #0 {
  %2 = alloca ptr, align 8
  %3 = alloca i32, align 4
  %4 = alloca i32, align 4
  %5 = alloca i32, align 4
  store i32 %0, ptr %3, align 4
  %6 = load i32, ptr %3, align 4
  switch i32 %6, label %15 [
    i32 1, label %7
    i32 2, label %8
    i32 3, label %9
    i32 4, label %10
    i32 5, label %11
    i32 6, label %12
    i32 7, label %13
    i32 0, label %14
    i32 8, label %14
  ]

7:                                                ; preds = %1
  store ptr @.str.63, ptr %2, align 8
  br label %43

8:                                                ; preds = %1
  store ptr @.str.64, ptr %2, align 8
  br label %43

9:                                                ; preds = %1
  store ptr @.str.65, ptr %2, align 8
  br label %43

10:                                               ; preds = %1
  store ptr @.str.66, ptr %2, align 8
  br label %43

11:                                               ; preds = %1
  store ptr @.str.67, ptr %2, align 8
  br label %43

12:                                               ; preds = %1
  store ptr @.str.68, ptr %2, align 8
  br label %43

13:                                               ; preds = %1
  store ptr @.str.69, ptr %2, align 8
  br label %43

14:                                               ; preds = %1, %1
  store ptr @.str.70, ptr %2, align 8
  br label %43

15:                                               ; preds = %1
  call void @llvm.lifetime.start.p0(i64 4, ptr %4) #10
  store i32 0, ptr %4, align 4
  br label %16

16:                                               ; preds = %37, %15
  %17 = load i32, ptr %4, align 4
  %18 = sext i32 %17 to i64
  %19 = icmp ult i64 %18, 8
  br i1 %19, label %21, label %20

20:                                               ; preds = %16
  store i32 3, ptr %5, align 4
  br label %40

21:                                               ; preds = %16
  %22 = load i32, ptr %4, align 4
  %23 = sext i32 %22 to i64
  %24 = getelementptr inbounds [8 x %struct.anon], ptr @type_map, i64 0, i64 %23
  %25 = getelementptr inbounds nuw %struct.anon, ptr %24, i32 0, i32 1
  %26 = load i32, ptr %25, align 4
  %27 = load i32, ptr %3, align 4
  %28 = icmp eq i32 %26, %27
  br i1 %28, label %29, label %36

29:                                               ; preds = %21
  %30 = load i32, ptr %4, align 4
  %31 = sext i32 %30 to i64
  %32 = getelementptr inbounds [8 x %struct.anon], ptr @type_map, i64 0, i64 %31
  %33 = getelementptr inbounds nuw %struct.anon, ptr %32, i32 0, i32 0
  %34 = load i32, ptr %33, align 8
  %35 = call ptr @data_type_to_string(i32 noundef %34)
  store ptr %35, ptr %2, align 8
  store i32 1, ptr %5, align 4
  br label %40

36:                                               ; preds = %21
  br label %37

37:                                               ; preds = %36
  %38 = load i32, ptr %4, align 4
  %39 = add nsw i32 %38, 1
  store i32 %39, ptr %4, align 4
  br label %16, !llvm.loop !34

40:                                               ; preds = %29, %20
  call void @llvm.lifetime.end.p0(i64 4, ptr %4) #10
  %41 = load i32, ptr %5, align 4
  switch i32 %41, label %45 [
    i32 3, label %42
    i32 1, label %43
  ]

42:                                               ; preds = %40
  store ptr @.str.70, ptr %2, align 8
  br label %43

43:                                               ; preds = %42, %40, %14, %13, %12, %11, %10, %9, %8, %7
  %44 = load ptr, ptr %2, align 8
  ret ptr %44

45:                                               ; preds = %40
  unreachable
}