; Function Attrs: nofree nosync nounwind memory(none) uwtable
define dso_local nonnull ptr @data_type_to_string(i32 noundef %0) local_unnamed_addr #12 {
  br label %tailrecurse

tailrecurse:                                      ; preds = %8, %1
  %.tr = phi i32 [ %0, %1 ], [ %9, %8 ]
  %2 = icmp ult i32 %.tr, 9
  br i1 %2, label %switch.lookup, label %.preheader

3:                                                ; preds = %.preheader
  %indvars.iv.next = add nuw nsw i64 %indvars.iv, 1
  %exitcond = icmp eq i64 %indvars.iv.next, 8
  br i1 %exitcond, label %.loopexit, label %.preheader, !llvm.loop !35

.preheader:                                       ; preds = %tailrecurse, %3
  %indvars.iv = phi i64 [ %indvars.iv.next, %3 ], [ 0, %tailrecurse ]
  %4 = getelementptr inbounds nuw [8 x %struct.anon], ptr @type_map, i64 0, i64 %indvars.iv
  %5 = getelementptr inbounds nuw i8, ptr %4, i64 4
  %6 = load i32, ptr %5, align 4
  %7 = icmp eq i32 %6, %.tr
  br i1 %7, label %8, label %3

8:                                                ; preds = %.preheader
  %9 = load i32, ptr %4, align 8
  br label %tailrecurse

switch.lookup:                                    ; preds = %tailrecurse
  %10 = zext nneg i32 %.tr to i64
  %switch.gep = getelementptr inbounds nuw [9 x ptr], ptr @switch.table.data_type_to_string, i64 0, i64 %10
  %switch.load = load ptr, ptr %switch.gep, align 8
  br label %.loopexit

.loopexit:                                        ; preds = %3, %switch.lookup
  %.08 = phi ptr [ %switch.load, %switch.lookup ], [ @.str.70, %3 ]
  ret ptr %.08
}